; Function Attrs: mustprogress uwtable
define void @_ZN3vcg3tri2io10VertexGrid8SetValueEiiNS_6Point3IfEEaaah(ptr noundef nonnull align 8 dereferenceable(16) %0, i32 noundef %1, i32 noundef %2, <2 x float> %3, float %4, i8 noundef signext %5, i8 noundef signext %6, i8 noundef signext %7, i8 noundef zeroext %8) local_unnamed_addr #13 align 2 personality ptr @__gxx_personality_v0 {
  %10 = load i32, ptr %0, align 8
  %11 = icmp slt i32 %10, %1
  %12 = getelementptr inbounds i8, ptr %0, i64 4
  %13 = load i32, ptr %12, align 4
  %14 = icmp slt i32 %13, %2
  %or.cond = select i1 %11, i1 true, i1 %14
  br i1 %or.cond, label %41, label %15

15:                                               ; preds = %9
  %16 = mul i32 %1, 20
  %17 = mul i32 %16, %2
  %18 = getelementptr inbounds i8, ptr %0, i64 8
  %19 = load ptr, ptr %18, align 8
  %20 = getelementptr inbounds i8, ptr %19, i64 4
  %21 = load i32, ptr %20, align 4
  %22 = icmp sgt i32 %17, %21
  br i1 %22, label %41, label %23

23:                                               ; preds = %15
  %24 = load atomic i32, ptr %19 monotonic, align 4
  %25 = icmp ugt i32 %24, 1
  br i1 %25, label %29, label %26

26:                                               ; preds = %23
  %27 = getelementptr inbounds i8, ptr %19, i64 16
  %28 = load i64, ptr %27, align 8
  %.not.i.i = icmp eq i64 %28, 24
  br i1 %.not.i.i, label %_ZN10QByteArray4dataEv.exit, label %29

29:                                               ; preds = %26, %23
  %30 = add i32 %21, 1
  %31 = getelementptr inbounds i8, ptr %19, i64 8
  %32 = load i32, ptr %31, align 8
  %.lobit.i.i.i = lshr i32 %32, 31
  tail call void @_ZN10QByteArray11reallocDataEj6QFlagsIN10QArrayData16AllocationOptionEE(ptr noundef nonnull align 8 dereferenceable(8) %18, i32 noundef %30, i32 %.lobit.i.i.i)
  %.pre.i = load ptr, ptr %18, align 8
  %.phi.trans.insert.i = getelementptr inbounds i8, ptr %.pre.i, i64 16
  %.pre1.i = load i64, ptr %.phi.trans.insert.i, align 8
  %.pre = load i32, ptr %0, align 8
  br label %_ZN10QByteArray4dataEv.exit

_ZN10QByteArray4dataEv.exit:                      ; preds = %26, %29
  %33 = phi i32 [ %10, %26 ], [ %.pre, %29 ]
  %34 = phi i64 [ 24, %26 ], [ %.pre1.i, %29 ]
  %35 = phi ptr [ %19, %26 ], [ %.pre.i, %29 ]
  %36 = getelementptr inbounds i8, ptr %35, i64 %34
  %37 = mul nsw i32 %33, %2
  %38 = add nsw i32 %37, %1
  %39 = sext i32 %38 to i64
  %40 = getelementptr inbounds %"struct.vcg::tri::io::VertexGrid::Vertex", ptr %36, i64 %39
  store i8 1, ptr %40, align 4
  %.sroa.21.0..0..sroa_idx = getelementptr inbounds i8, ptr %40, i64 4
  store <2 x float> %3, ptr %.sroa.21.0..0..sroa_idx, align 4
  %.sroa.4.0..0..sroa_idx = getelementptr inbounds i8, ptr %40, i64 12
  store float %4, ptr %.sroa.4.0..0..sroa_idx, align 4
  %.sroa.5.0..0..sroa_idx = getelementptr inbounds i8, ptr %40, i64 16
  store i8 %8, ptr %.sroa.5.0..0..sroa_idx, align 4
  %.sroa.6.0..0..sroa_idx = getelementptr inbounds i8, ptr %40, i64 17
  store i8 %5, ptr %.sroa.6.0..0..sroa_idx, align 1
  %.sroa.7.0..0..sroa_idx = getelementptr inbounds i8, ptr %40, i64 18
  store i8 %6, ptr %.sroa.7.0..0..sroa_idx, align 2
  %.sroa.8.0..0..sroa_idx = getelementptr inbounds i8, ptr %40, i64 19
  store i8 %7, ptr %.sroa.8.0..0..sroa_idx, align 1
  br label %41

41:                                               ; preds = %9, %15, %_ZN10QByteArray4dataEv.exit
  ret void
}